target datalayout = "e-m:e-p270:32:32-p271:32:32-p272:64:64-i64:64-i128:128-f80:128-n8:16:32:64-S128"
target triple = "x86_64-pc-linux-gnu"

%"class.fmt::v11::basic_string_view" = type { ptr, i64 }
%"class.std::system_error" = type { %"class.std::runtime_error", %"class.std::error_code" }
%"class.std::runtime_error" = type { %"class.std::exception", %"struct.std::__cow_string" }
%"class.std::exception" = type { ptr }
%"struct.std::__cow_string" = type { %union.anon }
%union.anon = type { ptr }
%"class.std::error_code" = type { i32, ptr }
%"class.fmt::v11::basic_format_args" = type { i64, %union.anon.39 }
%union.anon.39 = type { ptr }
%"class.fmt::v11::detail::value" = type { %union.anon.40 }
%union.anon.40 = type { i128 }
%"class.fmt::v11::basic_format_string.0" = type { %"class.fmt::v11::basic_string_view" }
%"struct.fmt::v11::detail::format_arg_store.41" = type { [1 x %"class.fmt::v11::detail::value"] }
%"class.fmt::v11::file" = type { i32 }
%struct.stat = type { i64, i64, i64, i32, i32, i32, i32, i64, i64, i64, i64, %struct.timespec, %struct.timespec, %struct.timespec, [3 x i64] }
%struct.timespec = type { i64, i64 }
%struct.FMT_COMPILE_STRING.13 = type { i8 }
%class.anon.14 = type { i8 }

@_ZTISt12system_error = external constant ptr
@.str.4 = private unnamed_addr constant [27 x i8] c"cannot get file attributes\00", align 1
@"__const._ZN3fmt3v116detail19check_format_stringIJEZZNKS0_4file4sizeEvENK3$_0clEvE18FMT_COMPILE_STRINGTnNSt9enable_ifIXsr17is_compile_stringIT0_EE5valueEiE4typeELi0EEEvS7_.s" = private unnamed_addr constant %"class.fmt::v11::basic_string_view" { ptr @.str.4, i64 26 }, align 8

; Function Attrs: mustprogress nounwind uwtable
define linkonce_odr void @_ZN3fmt3v119monostateC2Ev(ptr noundef nonnull align 1 dereferenceable(1) %0) unnamed_addr #0 comdat align 2 {
  %2 = alloca ptr, align 8
  store ptr %0, ptr %2, align 8, !tbaa !127
  ret void
}

; Function Attrs: mustprogress nounwind uwtable
define linkonce_odr void @_ZN3fmt3v1117basic_string_viewIcEC2EPKcm(ptr noundef nonnull align 8 dereferenceable(16) %0, ptr noundef %1, i64 noundef %2) unnamed_addr #0 comdat align 2 {
  %4 = alloca ptr, align 8
  %5 = alloca ptr, align 8
  %6 = alloca i64, align 8
  store ptr %0, ptr %4, align 8, !tbaa !120
  store ptr %1, ptr %5, align 8, !tbaa !15
  store i64 %2, ptr %6, align 8, !tbaa !50
  %7 = load ptr, ptr %4, align 8
  %8 = getelementptr inbounds nuw %"class.fmt::v11::basic_string_view", ptr %7, i32 0, i32 0
  %9 = load ptr, ptr %5, align 8, !tbaa !15
  store ptr %9, ptr %8, align 8, !tbaa !122
  %10 = getelementptr inbounds nuw %"class.fmt::v11::basic_string_view", ptr %7, i32 0, i32 1
  %11 = load i64, ptr %6, align 8, !tbaa !50
  store i64 %11, ptr %10, align 8, !tbaa !124
  ret void
}

; Function Attrs: mustprogress nounwind uwtable
define linkonce_odr noundef i32 @_ZNSt11char_traitsIcE11to_int_typeERKc(ptr noundef nonnull align 1 dereferenceable(1) %0) #0 comdat align 2 {
  %2 = alloca ptr, align 8
  store ptr %0, ptr %2, align 8, !tbaa !15
  %3 = load ptr, ptr %2, align 8, !tbaa !15
  %4 = load i8, ptr %3, align 1, !tbaa !115
  %5 = zext i8 %4 to i32
  ret i32 %5
}

; Function Attrs: alwaysinline mustprogress uwtable
define linkonce_odr void @_ZN3fmt3v116detail5valueINS0_7contextEEC2Ev(ptr noundef nonnull align 16 dereferenceable(16) %0) unnamed_addr #8 comdat align 2 {
  %2 = alloca ptr, align 8
  store ptr %0, ptr %2, align 8, !tbaa !118
  %3 = load ptr, ptr %2, align 8
  %4 = getelementptr inbounds nuw %"class.fmt::v11::detail::value", ptr %3, i32 0, i32 0
  call void @_ZN3fmt3v119monostateC2Ev(ptr noundef nonnull align 1 dereferenceable(1) %4)
  ret void
}

; Function Attrs: mustprogress nounwind uwtable
define linkonce_odr void @_ZN3fmt3v116detail13ignore_unusedIJbEEEvDpRKT_(ptr noundef nonnull align 1 dereferenceable(1) %0) #0 comdat {
  %2 = alloca ptr, align 8
  store ptr %0, ptr %2, align 8, !tbaa !105
  ret void
}

; Function Attrs: mustprogress nounwind uwtable
define linkonce_odr { ptr, i64 } @_ZN3fmt3v1115detail_exported22compile_string_to_viewIcLm27EEENS0_17basic_string_viewIT_EERAT0__KS4_(ptr noundef nonnull align 1 dereferenceable(27) %0) #0 comdat {
  %2 = alloca %"class.fmt::v11::basic_string_view", align 8
  %3 = alloca ptr, align 8
  store ptr %0, ptr %3, align 8, !tbaa !15
  %4 = load ptr, ptr %3, align 8, !tbaa !15
  %5 = getelementptr inbounds [27 x i8], ptr %4, i64 0, i64 0
  %6 = load ptr, ptr %3, align 8, !tbaa !15
  %7 = getelementptr inbounds nuw [27 x i8], ptr %6, i64 0, i64 26
  %8 = call noundef i32 @_ZNSt11char_traitsIcE11to_int_typeERKc(ptr noundef nonnull align 1 dereferenceable(1) %7) #15
  %9 = icmp eq i32 %8, 0
  %10 = select i1 %9, i32 1, i32 0
  %11 = sext i32 %10 to i64
  %12 = sub i64 27, %11
  call void @_ZN3fmt3v1117basic_string_viewIcEC2EPKcm(ptr noundef nonnull align 8 dereferenceable(16) %2, ptr noundef %5, i64 noundef %12) #15
  %13 = load { ptr, i64 }, ptr %2, align 8
  ret { ptr, i64 } %13
}

; Function Attrs: alwaysinline mustprogress nounwind uwtable
define linkonce_odr void @"_ZN3fmt3v1117basic_format_argsINS0_7contextEEC2ILm0ELm0ELy0ETnNSt9enable_ifIXleT_LNS0_6detail4$_13E15EEiE4typeELi0EEERKNS6_16format_arg_storeIS2_XT_EXT0_EXT1_EEE"(ptr noundef nonnull align 8 dereferenceable(16) %0, ptr noundef nonnull align 16 dereferenceable(16) %1) unnamed_addr #13 comdat align 2 {
  %3 = alloca ptr, align 8
  %4 = alloca ptr, align 8
  store ptr %0, ptr %3, align 8, !tbaa !108
  store ptr %1, ptr %4, align 8, !tbaa !125
  %5 = load ptr, ptr %3, align 8
  %6 = getelementptr inbounds nuw %"class.fmt::v11::basic_format_args", ptr %5, i32 0, i32 0
  store i64 0, ptr %6, align 8, !tbaa !112
  %7 = getelementptr inbounds nuw %"class.fmt::v11::basic_format_args", ptr %5, i32 0, i32 1
  %8 = load ptr, ptr %4, align 8, !tbaa !125
  %9 = getelementptr inbounds nuw %"struct.fmt::v11::detail::format_arg_store.41", ptr %8, i32 0, i32 0
  %10 = getelementptr inbounds [1 x %"class.fmt::v11::detail::value"], ptr %9, i64 0, i64 0
  %11 = getelementptr inbounds %"class.fmt::v11::detail::value", ptr %10, i64 0
  store ptr %11, ptr %7, align 8, !tbaa !115
  ret void
}

; Function Attrs: alwaysinline mustprogress uwtable
define linkonce_odr { i64, i64 } @_ZN3fmt3v1116make_format_argsINS0_7contextEJELm0ELm0ELy0ETnNSt9enable_ifIXeqT2_Li0EEiE4typeELi0EEENS0_6detail16format_arg_storeIT_XT1_ELm0EXT3_EEEDpRT0_() #8 comdat {
  %1 = alloca %"struct.fmt::v11::detail::format_arg_store.41", align 16
  %2 = getelementptr inbounds nuw %"struct.fmt::v11::detail::format_arg_store.41", ptr %1, i32 0, i32 0
  %3 = getelementptr inbounds %"class.fmt::v11::detail::value", ptr %2, i64 1
  br label %4

4:                                                ; preds = %4, %0
  %5 = phi ptr [ %2, %0 ], [ %6, %4 ]
  call void @_ZN3fmt3v116detail5valueINS0_7contextEEC2Ev(ptr noundef nonnull align 16 dereferenceable(16) %5)
  %6 = getelementptr inbounds %"class.fmt::v11::detail::value", ptr %5, i64 1
  %7 = icmp eq ptr %6, %3
  br i1 %7, label %8, label %4

8:                                                ; preds = %4
  %9 = getelementptr inbounds nuw %"struct.fmt::v11::detail::format_arg_store.41", ptr %1, i32 0, i32 0
  %10 = load { i64, i64 }, ptr %9, align 16
  ret { i64, i64 } %10
}

; Function Attrs: alwaysinline mustprogress nounwind uwtable
define linkonce_odr { ptr, i64 } @_ZNK3fmt3v1119basic_format_stringIcJEEcvNS0_17basic_string_viewIcEEEv(ptr noundef nonnull align 8 dereferenceable(16) %0) #13 comdat align 2 {
  %2 = alloca %"class.fmt::v11::basic_string_view", align 8
  %3 = alloca ptr, align 8
  store ptr %0, ptr %3, align 8, !tbaa !29
  %4 = load ptr, ptr %3, align 8
  %5 = getelementptr inbounds nuw %"class.fmt::v11::basic_format_string.0", ptr %4, i32 0, i32 0
  call void @llvm.memcpy.p0.p0.i64(ptr align 8 %2, ptr align 8 %5, i64 16, i1 false), !tbaa.struct !107
  %6 = load { ptr, i64 }, ptr %2, align 8
  ret { ptr, i64 } %6
}

; Function Attrs: mustprogress nounwind uwtable
define internal void @"_ZN3fmt3v116detail19check_format_stringIJEZZNKS0_4file4sizeEvENK3$_0clEvE18FMT_COMPILE_STRINGTnNSt9enable_ifIXsr17is_compile_stringIT0_EE5valueEiE4typeELi0EEEvS7_"() #0 {
  %1 = alloca %"class.fmt::v11::basic_string_view", align 8
  %2 = alloca i8, align 1
  call void @llvm.lifetime.start.p0(i64 16, ptr %1) #15
  call void @llvm.memcpy.p0.p0.i64(ptr align 8 %1, ptr align 8 @"__const._ZN3fmt3v116detail19check_format_stringIJEZZNKS0_4file4sizeEvENK3$_0clEvE18FMT_COMPILE_STRINGTnNSt9enable_ifIXsr17is_compile_stringIT0_EE5valueEiE4typeELi0EEEvS7_.s", i64 16, i1 false)
  call void @llvm.lifetime.start.p0(i64 1, ptr %2) #15
  store i8 1, ptr %2, align 1, !tbaa !54
  call void @_ZN3fmt3v116detail13ignore_unusedIJbEEEvDpRKT_(ptr noundef nonnull align 1 dereferenceable(1) %2)
  call void @llvm.lifetime.end.p0(i64 1, ptr %2) #15
  call void @llvm.lifetime.end.p0(i64 16, ptr %1) #15
  ret void
}

; Function Attrs: mustprogress nounwind uwtable
define internal { ptr, i64 } @"_ZZZNK3fmt3v114file4sizeEvENK3$_0clEvENK18FMT_COMPILE_STRINGcvNS0_17basic_string_viewIcEEEv"(ptr noundef nonnull align 1 dereferenceable(1) %0) #0 align 2 {
  %2 = alloca %"class.fmt::v11::basic_string_view", align 8
  %3 = alloca ptr, align 8
  store ptr %0, ptr %3, align 8, !tbaa !48
  %4 = call { ptr, i64 } @_ZN3fmt3v1115detail_exported22compile_string_to_viewIcLm27EEENS0_17basic_string_viewIT_EERAT0__KS4_(ptr noundef nonnull align 1 dereferenceable(27) @.str.4)
  %5 = getelementptr inbounds nuw { ptr, i64 }, ptr %2, i32 0, i32 0
  %6 = extractvalue { ptr, i64 } %4, 0
  store ptr %6, ptr %5, align 8
  %7 = getelementptr inbounds nuw { ptr, i64 }, ptr %2, i32 0, i32 1
  %8 = extractvalue { ptr, i64 } %4, 1
  store i64 %8, ptr %7, align 8
  %9 = load { ptr, i64 }, ptr %2, align 8
  ret { ptr, i64 } %9
}

; Function Attrs: mustprogress uwtable
define linkonce_odr void @_ZN3fmt3v1112system_errorIJEEESt12system_erroriNS0_19basic_format_stringIcJDpNS0_13type_identityIT_E4typeEEEEDpOS5_(ptr dead_on_unwind noalias writable sret(%"class.std::system_error") align 8 %0, i32 noundef %1, ptr %2, i64 %3) #5 comdat {
  %5 = alloca ptr, align 8
  %6 = alloca %"class.fmt::v11::basic_format_string.0", align 8
  %7 = alloca i32, align 4
  %8 = alloca %"class.fmt::v11::basic_string_view", align 8
  %9 = alloca %"class.fmt::v11::basic_format_args", align 8
  %10 = alloca %"struct.fmt::v11::detail::format_arg_store.41", align 16
  store ptr %0, ptr %5, align 8
  %11 = getelementptr inbounds nuw { ptr, i64 }, ptr %6, i32 0, i32 0
  store ptr %2, ptr %11, align 8
  %12 = getelementptr inbounds nuw { ptr, i64 }, ptr %6, i32 0, i32 1
  store i64 %3, ptr %12, align 8
  store i32 %1, ptr %7, align 4, !tbaa !11
  %13 = load i32, ptr %7, align 4, !tbaa !11
  %14 = call { ptr, i64 } @_ZNK3fmt3v1119basic_format_stringIcJEEcvNS0_17basic_string_viewIcEEEv(ptr noundef nonnull align 8 dereferenceable(16) %6)
  %15 = getelementptr inbounds nuw { ptr, i64 }, ptr %8, i32 0, i32 0
  %16 = extractvalue { ptr, i64 } %14, 0
  store ptr %16, ptr %15, align 8
  %17 = getelementptr inbounds nuw { ptr, i64 }, ptr %8, i32 0, i32 1
  %18 = extractvalue { ptr, i64 } %14, 1
  store i64 %18, ptr %17, align 8
  call void @llvm.lifetime.start.p0(i64 16, ptr %10) #15
  %19 = call { i64, i64 } @_ZN3fmt3v1116make_format_argsINS0_7contextEJELm0ELm0ELy0ETnNSt9enable_ifIXeqT2_Li0EEiE4typeELi0EEENS0_6detail16format_arg_storeIT_XT1_ELm0EXT3_EEEDpRT0_()
  %20 = getelementptr inbounds nuw %"struct.fmt::v11::detail::format_arg_store.41", ptr %10, i32 0, i32 0
  %21 = getelementptr inbounds nuw { i64, i64 }, ptr %20, i32 0, i32 0
  %22 = extractvalue { i64, i64 } %19, 0
  store i64 %22, ptr %21, align 16
  %23 = getelementptr inbounds nuw { i64, i64 }, ptr %20, i32 0, i32 1
  %24 = extractvalue { i64, i64 } %19, 1
  store i64 %24, ptr %23, align 8
  call void @"_ZN3fmt3v1117basic_format_argsINS0_7contextEEC2ILm0ELm0ELy0ETnNSt9enable_ifIXleT_LNS0_6detail4$_13E15EEiE4typeELi0EEERKNS6_16format_arg_storeIS2_XT_EXT0_EXT1_EEE"(ptr noundef nonnull align 8 dereferenceable(16) %9, ptr noundef nonnull align 16 dereferenceable(16) %10)
  %25 = getelementptr inbounds nuw { ptr, i64 }, ptr %8, i32 0, i32 0
  %26 = load ptr, ptr %25, align 8
  %27 = getelementptr inbounds nuw { ptr, i64 }, ptr %8, i32 0, i32 1
  %28 = load i64, ptr %27, align 8
  %29 = getelementptr inbounds nuw { i64, ptr }, ptr %9, i32 0, i32 0
  %30 = load i64, ptr %29, align 8
  %31 = getelementptr inbounds nuw { i64, ptr }, ptr %9, i32 0, i32 1
  %32 = load ptr, ptr %31, align 8
  call void @_ZN3fmt3v1113vsystem_errorEiNS0_17basic_string_viewIcEENS0_17basic_format_argsINS0_7contextEEE(ptr dead_on_unwind writable sret(%"class.std::system_error") align 8 %0, i32 noundef %13, ptr %26, i64 %28, i64 %30, ptr %32)
  call void @llvm.lifetime.end.p0(i64 16, ptr %10) #15
  ret void
}

; Function Attrs: alwaysinline mustprogress uwtable
define internal void @"_ZN3fmt3v1119basic_format_stringIcJEEC2IZZNKS0_4file4sizeEvENK3$_0clEvE18FMT_COMPILE_STRINGTnNSt9enable_ifIXoosr3std14is_convertibleIRKT_NS0_17basic_string_viewIcEEEE5valueaasr6detail17is_compile_stringIS8_EE5valuesr3std16is_constructibleISC_SA_EE5valueEiE4typeELi0EEESA_"(ptr noundef nonnull align 8 dereferenceable(16) %0, ptr noundef nonnull align 1 dereferenceable(1) %1) unnamed_addr #8 align 2 {
  %3 = alloca ptr, align 8
  %4 = alloca ptr, align 8
  store ptr %0, ptr %3, align 8, !tbaa !29
  store ptr %1, ptr %4, align 8, !tbaa !48
  %5 = load ptr, ptr %3, align 8
  %6 = getelementptr inbounds nuw %"class.fmt::v11::basic_format_string.0", ptr %5, i32 0, i32 0
  %7 = load ptr, ptr %4, align 8, !tbaa !48
  %8 = call { ptr, i64 } @"_ZZZNK3fmt3v114file4sizeEvENK3$_0clEvENK18FMT_COMPILE_STRINGcvNS0_17basic_string_viewIcEEEv"(ptr noundef nonnull align 1 dereferenceable(1) %7)
  %9 = getelementptr inbounds nuw { ptr, i64 }, ptr %6, i32 0, i32 0
  %10 = extractvalue { ptr, i64 } %8, 0
  store ptr %10, ptr %9, align 8
  %11 = getelementptr inbounds nuw { ptr, i64 }, ptr %6, i32 0, i32 1
  %12 = extractvalue { ptr, i64 } %8, 1
  store i64 %12, ptr %11, align 8
  call void @"_ZN3fmt3v116detail19check_format_stringIJEZZNKS0_4file4sizeEvENK3$_0clEvE18FMT_COMPILE_STRINGTnNSt9enable_ifIXsr17is_compile_stringIT0_EE5valueEiE4typeELi0EEEvS7_"()
  ret void
}

; Function Attrs: inlinehint mustprogress nounwind uwtable
define internal void @"_ZZNK3fmt3v114file4sizeEvENK3$_0clEv"(ptr noundef nonnull align 1 dereferenceable(1) %0) #7 align 2 {
  %2 = alloca ptr, align 8
  store ptr %0, ptr %2, align 8, !tbaa !24
  ret void
}

; Function Attrs: mustprogress uwtable
define noundef i64 @_ZNK3fmt3v114file4sizeEv(ptr noundef nonnull align 4 dereferenceable(4) %0) #5 align 2 personality ptr @__gxx_personality_v0 {
  %2 = alloca ptr, align 8
  %3 = alloca %struct.stat, align 8
  %4 = alloca %"class.fmt::v11::basic_format_string.0", align 8
  %5 = alloca %struct.FMT_COMPILE_STRING.13, align 1
  %6 = alloca %class.anon.14, align 1
  %7 = alloca ptr, align 8
  %8 = alloca i32, align 4
  %9 = alloca i1, align 1
  store ptr %0, ptr %2, align 8, !tbaa !35
  %10 = load ptr, ptr %2, align 8
  call void @llvm.lifetime.start.p0(i64 144, ptr %3) #15
  call void @llvm.memset.p0.i64(ptr align 8 %3, i8 0, i64 144, i1 false)
  %11 = getelementptr inbounds nuw %"class.fmt::v11::file", ptr %10, i32 0, i32 0
  %12 = load i32, ptr %11, align 4, !tbaa !37
  %13 = call i32 @fstat(i32 noundef %12, ptr noundef %3) #15
  %14 = icmp eq i32 %13, -1
  br i1 %14, label %15, label %33

15:                                               ; preds = %1
  store i1 true, ptr %9, align 1
  %16 = call ptr @__cxa_allocate_exception(i64 32) #15
  %17 = call ptr @__errno_location() #14
  %18 = load i32, ptr %17, align 4, !tbaa !11
  call void @llvm.lifetime.start.p0(i64 1, ptr %5) #15
  call void @llvm.lifetime.start.p0(i64 1, ptr %6) #15
  invoke void @"_ZZNK3fmt3v114file4sizeEvENK3$_0clEv"(ptr noundef nonnull align 1 dereferenceable(1) %6)
          to label %19 unwind label %26

19:                                               ; preds = %15
  invoke void @"_ZN3fmt3v1119basic_format_stringIcJEEC2IZZNKS0_4file4sizeEvENK3$_0clEvE18FMT_COMPILE_STRINGTnNSt9enable_ifIXoosr3std14is_convertibleIRKT_NS0_17basic_string_viewIcEEEE5valueaasr6detail17is_compile_stringIS8_EE5valuesr3std16is_constructibleISC_SA_EE5valueEiE4typeELi0EEESA_"(ptr noundef nonnull align 8 dereferenceable(16) %4, ptr noundef nonnull align 1 dereferenceable(1) %5)
          to label %20 unwind label %26

20:                                               ; preds = %19
  %21 = getelementptr inbounds nuw { ptr, i64 }, ptr %4, i32 0, i32 0
  %22 = load ptr, ptr %21, align 8
  %23 = getelementptr inbounds nuw { ptr, i64 }, ptr %4, i32 0, i32 1
  %24 = load i64, ptr %23, align 8
  invoke void @_ZN3fmt3v1112system_errorIJEEESt12system_erroriNS0_19basic_format_stringIcJDpNS0_13type_identityIT_E4typeEEEEDpOS5_(ptr dead_on_unwind writable sret(%"class.std::system_error") align 8 %16, i32 noundef %18, ptr %22, i64 %24)
          to label %25 unwind label %26

25:                                               ; preds = %20
  store i1 false, ptr %9, align 1
  invoke void @__cxa_throw(ptr %16, ptr @_ZTISt12system_error, ptr @_ZNSt12system_errorD1Ev) #17
          to label %41 unwind label %26

26:                                               ; preds = %25, %20, %19, %15
  %27 = landingpad { ptr, i32 }
          cleanup
  %28 = extractvalue { ptr, i32 } %27, 0
  store ptr %28, ptr %7, align 8
  %29 = extractvalue { ptr, i32 } %27, 1
  store i32 %29, ptr %8, align 4
  call void @llvm.lifetime.end.p0(i64 1, ptr %6) #15
  call void @llvm.lifetime.end.p0(i64 1, ptr %5) #15
  %30 = load i1, ptr %9, align 1
  br i1 %30, label %31, label %32

31:                                               ; preds = %26
  call void @__cxa_free_exception(ptr %16) #15
  br label %32

32:                                               ; preds = %31, %26
  call void @llvm.lifetime.end.p0(i64 144, ptr %3) #15
  br label %36

33:                                               ; preds = %1
  %34 = getelementptr inbounds nuw %struct.stat, ptr %3, i32 0, i32 8
  %35 = load i64, ptr %34, align 8, !tbaa !44
  call void @llvm.lifetime.end.p0(i64 144, ptr %3) #15
  ret i64 %35

36:                                               ; preds = %32
  %37 = load ptr, ptr %7, align 8
  %38 = load i32, ptr %8, align 4
  %39 = insertvalue { ptr, i32 } poison, ptr %37, 0
  %40 = insertvalue { ptr, i32 } %39, i32 %38, 1
  resume { ptr, i32 } %40

41:                                               ; preds = %25
  unreachable
}