; Function Attrs: mustprogress uwtable
define noundef i64 @_ZNK3fmt3v114file4sizeEv(ptr noundef nonnull readonly align 4 captures(none) dereferenceable(4) %0) local_unnamed_addr #6 align 2 personality ptr @__gxx_personality_v0 {
  %2 = alloca %"struct.fmt::v11::detail::format_arg_store.41", align 16
  %3 = alloca %struct.stat, align 8
  call void @llvm.lifetime.start.p0(i64 144, ptr nonnull %3) #17
  call void @llvm.memset.p0.i64(ptr noundef nonnull align 8 dereferenceable(144) %3, i8 0, i64 144, i1 false)
  %4 = load i32, ptr %0, align 4, !tbaa !22
  %5 = call i32 @fstat(i32 noundef %4, ptr noundef nonnull %3) #17
  %6 = icmp eq i32 %5, -1
  br i1 %6, label %7, label %14

7:                                                ; preds = %1
  %8 = tail call ptr @__cxa_allocate_exception(i64 32) #17
  %9 = tail call ptr @__errno_location() #16
  %10 = load i32, ptr %9, align 4, !tbaa !9
  call void @llvm.lifetime.start.p0(i64 16, ptr nonnull %2) #17, !noalias !31
  invoke void @_ZN3fmt3v1113vsystem_errorEiNS0_17basic_string_viewIcEENS0_17basic_format_argsINS0_7contextEEE(ptr dead_on_unwind writable sret(%"class.std::system_error") align 8 %8, i32 noundef %10, ptr nonnull @.str.4, i64 26, i64 0, ptr nonnull %2)
          to label %11 unwind label %12

11:                                               ; preds = %7
  call void @llvm.lifetime.end.p0(i64 16, ptr nonnull %2) #17, !noalias !31
  call void @__cxa_throw(ptr %8, ptr nonnull @_ZTISt12system_error, ptr nonnull @_ZNSt12system_errorD1Ev) #19
  unreachable

12:                                               ; preds = %7
  %13 = landingpad { ptr, i32 }
          cleanup
  call void @__cxa_free_exception(ptr %8) #17
  call void @llvm.lifetime.end.p0(i64 144, ptr nonnull %3) #17
  resume { ptr, i32 } %13

14:                                               ; preds = %1
  %15 = getelementptr inbounds nuw i8, ptr %3, i64 48
  %16 = load i64, ptr %15, align 8, !tbaa !34
  call void @llvm.lifetime.end.p0(i64 144, ptr nonnull %3) #17
  ret i64 %16
}